target datalayout = "e-m:e-p270:32:32-p271:32:32-p272:64:64-i64:64-i128:128-f80:128-n8:16:32:64-S128"
target triple = "x86_64-pc-linux-gnu"

%struct.pmix_lock_t = type { i32, %struct.pmix_mutex_t, %union.pthread_cond_t, i8 }
%struct.pmix_mutex_t = type { %struct.pmix_object_t, %union.pthread_mutex_t }
%struct.pmix_object_t = type { %union.pthread_mutex_t, ptr, i32, %struct.pmix_tma }
%struct.pmix_tma = type { ptr, ptr, ptr, ptr, ptr, ptr, ptr, ptr }
%union.pthread_mutex_t = type { %struct.__pthread_mutex_s }
%struct.__pthread_mutex_s = type { i32, i32, i32, i32, i32, i16, i16, %struct.__pthread_internal_list }
%struct.__pthread_internal_list = type { ptr, ptr }
%union.pthread_cond_t = type { %struct.__pthread_cond_s }
%struct.__pthread_cond_s = type { %union.__atomic_wide_counter, %union.__atomic_wide_counter, [2 x i32], [2 x i32], i32, i32, [2 x i32] }
%union.__atomic_wide_counter = type { i64 }
%struct.pmix_globals_t = type { i32, %struct.pmix_proc, %struct.pmix_value, %struct.pmix_value, ptr, i32, i32, ptr, i32, i32, i32, i32, i32, ptr, ptr, i32, %struct.pmix_events_t, i8, i8, %struct.timeval, %struct.pmix_list_t, %struct.pmix_pointer_array_t, i32, i32, %struct.pmix_hotel_t, i8, %struct.pmix_list_t, i8, i8, i8, i64, %struct.pmix_list_t, %struct.pmix_topology_t, %struct.pmix_cpuset_t, i8, i8, %struct.pmix_iof_flags_t, %struct.pmix_keyindex_t }
%struct.pmix_proc = type { [256 x i8], i32 }
%struct.pmix_value = type { i16, %union.anon.9 }
%union.anon.9 = type { %struct.pmix_envar_t }
%struct.pmix_envar_t = type { ptr, ptr, i8 }
%struct.pmix_events_t = type { %struct.pmix_object_t, i64, ptr, ptr, %struct.pmix_list_t, %struct.pmix_list_t, %struct.pmix_list_t, %struct.pmix_list_t }
%struct.timeval = type { i64, i64 }
%struct.pmix_pointer_array_t = type { %struct.pmix_object_t, i32, i32, i32, i32, i32, ptr, ptr }
%struct.pmix_hotel_t = type { %struct.pmix_object_t, i32, ptr, %struct.timeval, ptr, ptr, ptr, ptr, i32 }
%struct.pmix_list_t = type { %struct.pmix_object_t, %struct.pmix_list_item_t, i64 }
%struct.pmix_list_item_t = type { %struct.pmix_object_t, ptr, ptr, i32 }
%struct.pmix_topology_t = type { ptr, ptr }
%struct.pmix_cpuset_t = type { ptr, ptr }
%struct.pmix_iof_flags_t = type { i8, i8, i8, i8, i8, i8, i8, ptr, ptr, i8, i8, i8, i8, i8, i8 }
%struct.pmix_keyindex_t = type { %struct.pmix_object_t, ptr, i32 }
%struct.pmix_output_desc_t = type { i8, i8, i32, i8, i32, ptr, ptr, i32, ptr, i32, i8, i8, i8, i8, ptr, i32, i32 }
%struct.pmix_class_t = type { ptr, ptr, ptr, ptr, i32, i32, ptr, ptr, i64 }
%struct.event = type { %struct.event_callback, %union.anon.0, i32, ptr, %union.anon.2, i16, i16, %struct.timeval }
%struct.event_callback = type { %struct.anon, i16, i8, i8, %union.anon, ptr }
%struct.anon = type { ptr, ptr }
%union.anon = type { ptr }
%union.anon.0 = type { %struct.anon.1 }
%struct.anon.1 = type { ptr, ptr }
%union.anon.2 = type { %struct.anon.3 }
%struct.anon.3 = type { %struct.anon.4, %struct.timeval }
%struct.anon.4 = type { ptr, ptr }
%struct.pmix_buffer_t = type { %struct.pmix_object_t, i8, ptr, ptr, ptr, i64, i64 }
%struct.pmix_name_t = type { ptr, i32 }
%struct.pmix_peer_t = type { %struct.pmix_object_t, ptr, ptr, %struct.pmix_proc_type_t, i16, i32, i32, i32, i8, %struct.event, i8, %struct.event, i8, %struct.pmix_list_t, ptr, ptr, i32, %struct.pmix_epilog_t }
%struct.pmix_proc_type_t = type { i32, i8, i8, i8, i8 }
%struct.pmix_epilog_t = type { i32, i32, %struct.pmix_list_t, %struct.pmix_list_t, %struct.pmix_list_t }
%struct.pmix_namespace_t = type { %struct.pmix_list_item_t, ptr, %struct.anon.10, i32, i64, i64, i8, i8, ptr, i64, i64, %struct.pmix_list_t, %struct.pmix_personality_t, %struct.pmix_epilog_t, %struct.pmix_list_t, %struct.pmix_iof_flags_t, %struct.pmix_list_t }
%struct.anon.10 = type { i8, i8, i8 }
%struct.pmix_personality_t = type { i8, ptr, ptr, ptr }
%struct.pmix_bfrops_module_t = type { ptr, ptr, ptr, ptr, ptr, ptr, ptr, ptr, ptr, ptr, ptr, ptr, ptr }
%struct.pmix_shift_caddy_t = type { %struct.pmix_object_t, %struct.event, %struct.pmix_lock_t, i32, ptr, i64, i32, %struct.pmix_name_t, ptr, ptr, ptr, i64, ptr, ptr, i64, ptr, i64, ptr, ptr, ptr, ptr, ptr, ptr, i8, %union.anon.11, ptr, i64 }
%union.anon.11 = type { ptr }

@pmix_globals = external global %struct.pmix_globals_t, align 8
@pmix_output_info = external global [0 x %struct.pmix_output_desc_t], align 8
@pmix_bfrops_base_output = external global i32, align 4
@.str.5 = private unnamed_addr constant [20 x i8] c"common/pmix_alloc.c\00", align 1
@.str.6 = private unnamed_addr constant [37 x i8] c"PMIX ERROR: %s in file %s at line %d\00", align 1
@.str.10 = private unnamed_addr constant [21 x i8] c"pthread_mutex_lock()\00", align 1
@.str.12 = private unnamed_addr constant [34 x i8] c"[%s:%d] UNPACK version %s type %s\00", align 1
@.str.17 = private unnamed_addr constant [38 x i8] c"pmix:resource block cback from server\00", align 1

; Function Attrs: inlinehint nounwind uwtable
define internal void @pmix_tma_free(ptr noundef %0, ptr noundef %1) #2 {
  %3 = alloca ptr, align 8
  %4 = alloca ptr, align 8
  store ptr %0, ptr %3, align 8, !tbaa !76
  store ptr %1, ptr %4, align 8, !tbaa !87
  %5 = load ptr, ptr %3, align 8, !tbaa !76
  %6 = icmp ne ptr null, %5
  br i1 %6, label %7, label %13

7:                                                ; preds = %2
  %8 = load ptr, ptr %3, align 8, !tbaa !76
  %9 = getelementptr inbounds nuw %struct.pmix_tma, ptr %8, i32 0, i32 5
  %10 = load ptr, ptr %9, align 8, !tbaa !133
  %11 = load ptr, ptr %3, align 8, !tbaa !76
  %12 = load ptr, ptr %4, align 8, !tbaa !87
  call void %10(ptr noundef %11, ptr noundef %12)
  br label %15

13:                                               ; preds = %2
  %14 = load ptr, ptr %4, align 8, !tbaa !87
  call void @free(ptr noundef %14) #11
  br label %15

15:                                               ; preds = %13, %7
  ret void
}

; Function Attrs: inlinehint nounwind uwtable
define internal void @pmix_obj_run_destructors(ptr noundef %0) #2 {
  %2 = alloca ptr, align 8
  %3 = alloca ptr, align 8
  store ptr %0, ptr %2, align 8, !tbaa !74
  call void @llvm.lifetime.start.p0(i64 8, ptr %3) #11
  %4 = load ptr, ptr %2, align 8, !tbaa !74
  %5 = getelementptr inbounds nuw %struct.pmix_object_t, ptr %4, i32 0, i32 1
  %6 = load ptr, ptr %5, align 8, !tbaa !53
  %7 = getelementptr inbounds nuw %struct.pmix_class_t, ptr %6, i32 0, i32 7
  %8 = load ptr, ptr %7, align 8, !tbaa !129
  store ptr %8, ptr %3, align 8, !tbaa !87
  br label %9

9:                                                ; preds = %13, %1
  %10 = load ptr, ptr %3, align 8, !tbaa !87
  %11 = load ptr, ptr %10, align 8, !tbaa !87
  %12 = icmp ne ptr null, %11
  br i1 %12, label %13, label %19

13:                                               ; preds = %9
  %14 = load ptr, ptr %3, align 8, !tbaa !87
  %15 = load ptr, ptr %14, align 8, !tbaa !87
  %16 = load ptr, ptr %2, align 8, !tbaa !74
  call void %15(ptr noundef %16)
  %17 = load ptr, ptr %3, align 8, !tbaa !87
  %18 = getelementptr inbounds nuw ptr, ptr %17, i32 1
  store ptr %18, ptr %3, align 8, !tbaa !87
  br label %9, !llvm.loop !130

19:                                               ; preds = %9
  call void @llvm.lifetime.end.p0(i64 8, ptr %3) #11
  ret void
}

; Function Attrs: alwaysinline nounwind uwtable
define internal i32 @pmix_obj_update(ptr noundef %0, i32 noundef %1) #5 {
  %3 = alloca ptr, align 8
  %4 = alloca i32, align 4
  %5 = alloca i32, align 4
  store ptr %0, ptr %3, align 8, !tbaa !74
  store i32 %1, ptr %4, align 4, !tbaa !50
  call void @llvm.lifetime.start.p0(i64 4, ptr %5) #11
  %6 = load ptr, ptr %3, align 8, !tbaa !74
  %7 = getelementptr inbounds nuw %struct.pmix_object_t, ptr %6, i32 0, i32 0
  %8 = call i32 @pthread_mutex_lock(ptr noundef %7) #11
  store i32 %8, ptr %5, align 4, !tbaa !50
  %9 = load i32, ptr %5, align 4, !tbaa !50
  %10 = icmp eq i32 %9, 35
  br i1 %10, label %11, label %14

11:                                               ; preds = %2
  %12 = load i32, ptr %5, align 4, !tbaa !50
  %13 = call ptr @__errno_location() #12
  store i32 %12, ptr %13, align 4, !tbaa !50
  call void @perror(ptr noundef @.str.10)
  call void @abort() #13
  unreachable

14:                                               ; preds = %2
  %15 = load i32, ptr %4, align 4, !tbaa !50
  %16 = load ptr, ptr %3, align 8, !tbaa !74
  %17 = getelementptr inbounds nuw %struct.pmix_object_t, ptr %16, i32 0, i32 2
  %18 = load i32, ptr %17, align 8, !tbaa !54
  %19 = add nsw i32 %18, %15
  store i32 %19, ptr %17, align 8, !tbaa !54
  store i32 %19, ptr %5, align 4, !tbaa !50
  %20 = load ptr, ptr %3, align 8, !tbaa !74
  %21 = getelementptr inbounds nuw %struct.pmix_object_t, ptr %20, i32 0, i32 0
  %22 = call i32 @pthread_mutex_unlock(ptr noundef %21) #11
  %23 = load i32, ptr %5, align 4, !tbaa !50
  call void @llvm.lifetime.end.p0(i64 4, ptr %5) #11
  ret i32 %23
}

; Function Attrs: nounwind uwtable
define internal void @blkcbfunc(ptr noundef %0, ptr noundef %1, ptr noundef %2, ptr noundef %3) #0 {
  %5 = alloca ptr, align 8
  %6 = alloca ptr, align 8
  %7 = alloca ptr, align 8
  %8 = alloca ptr, align 8
  %9 = alloca ptr, align 8
  %10 = alloca i32, align 4
  %11 = alloca i32, align 4
  %12 = alloca i32, align 4
  %13 = alloca i32, align 4
  %14 = alloca ptr, align 8
  store ptr %0, ptr %5, align 8, !tbaa !120
  store ptr %1, ptr %6, align 8, !tbaa !87
  store ptr %2, ptr %7, align 8, !tbaa !87
  store ptr %3, ptr %8, align 8, !tbaa !87
  call void @llvm.lifetime.start.p0(i64 8, ptr %9) #11
  %15 = load ptr, ptr %8, align 8, !tbaa !87
  store ptr %15, ptr %9, align 8, !tbaa !87
  call void @llvm.lifetime.start.p0(i64 4, ptr %10) #11
  call void @llvm.lifetime.start.p0(i64 4, ptr %11) #11
  call void @llvm.lifetime.start.p0(i64 4, ptr %12) #11
  %16 = load i32, ptr getelementptr inbounds nuw (%struct.pmix_globals_t, ptr @pmix_globals, i32 0, i32 15), align 8, !tbaa !47
  %17 = icmp sge i32 %16, 0
  br i1 %17, label %18, label %30

18:                                               ; preds = %4
  %19 = load i32, ptr getelementptr inbounds nuw (%struct.pmix_globals_t, ptr @pmix_globals, i32 0, i32 15), align 8, !tbaa !47
  %20 = icmp slt i32 %19, 64
  br i1 %20, label %21, label %30

21:                                               ; preds = %18
  %22 = load i32, ptr getelementptr inbounds nuw (%struct.pmix_globals_t, ptr @pmix_globals, i32 0, i32 15), align 8, !tbaa !47
  %23 = sext i32 %22 to i64
  %24 = getelementptr inbounds [0 x %struct.pmix_output_desc_t], ptr @pmix_output_info, i64 0, i64 %23
  %25 = getelementptr inbounds nuw %struct.pmix_output_desc_t, ptr %24, i32 0, i32 2
  %26 = load i32, ptr %25, align 4, !tbaa !48
  %27 = icmp sge i32 %26, 2
  br i1 %27, label %28, label %30

28:                                               ; preds = %21
  %29 = load i32, ptr getelementptr inbounds nuw (%struct.pmix_globals_t, ptr @pmix_globals, i32 0, i32 15), align 8, !tbaa !47
  call void (i32, ptr, ...) @pmix_output(i32 noundef %29, ptr noundef @.str.17)
  br label %30

30:                                               ; preds = %28, %21, %18, %4
  %31 = load ptr, ptr %7, align 8, !tbaa !87
  %32 = getelementptr inbounds nuw %struct.pmix_buffer_t, ptr %31, i32 0, i32 6
  %33 = load i64, ptr %32, align 8, !tbaa !134
  %34 = icmp eq i64 0, %33
  br i1 %34, label %43, label %35

35:                                               ; preds = %30
  %36 = load ptr, ptr %7, align 8, !tbaa !87
  %37 = getelementptr inbounds nuw %struct.pmix_buffer_t, ptr %36, i32 0, i32 3
  %38 = load ptr, ptr %37, align 8, !tbaa !135
  %39 = load ptr, ptr %7, align 8, !tbaa !87
  %40 = getelementptr inbounds nuw %struct.pmix_buffer_t, ptr %39, i32 0, i32 4
  %41 = load ptr, ptr %40, align 8, !tbaa !136
  %42 = icmp eq ptr %38, %41
  br i1 %42, label %43, label %44

43:                                               ; preds = %35, %30
  store i32 1, ptr %13, align 4
  br label %146

44:                                               ; preds = %35
  store i32 1, ptr %12, align 4, !tbaa !50
  br label %45

45:                                               ; preds = %44
  %46 = load i32, ptr @pmix_bfrops_base_output, align 4, !tbaa !50
  %47 = icmp sge i32 %46, 0
  br i1 %47, label %48, label %69

48:                                               ; preds = %45
  %49 = load i32, ptr @pmix_bfrops_base_output, align 4, !tbaa !50
  %50 = icmp slt i32 %49, 64
  br i1 %50, label %51, label %69

51:                                               ; preds = %48
  %52 = load i32, ptr @pmix_bfrops_base_output, align 4, !tbaa !50
  %53 = sext i32 %52 to i64
  %54 = getelementptr inbounds [0 x %struct.pmix_output_desc_t], ptr @pmix_output_info, i64 0, i64 %53
  %55 = getelementptr inbounds nuw %struct.pmix_output_desc_t, ptr %54, i32 0, i32 2
  %56 = load i32, ptr %55, align 4, !tbaa !48
  %57 = icmp sge i32 %56, 2
  br i1 %57, label %58, label %69

58:                                               ; preds = %51
  %59 = load i32, ptr @pmix_bfrops_base_output, align 4, !tbaa !50
  %60 = load ptr, ptr %5, align 8, !tbaa !120
  %61 = getelementptr inbounds nuw %struct.pmix_peer_t, ptr %60, i32 0, i32 1
  %62 = load ptr, ptr %61, align 8, !tbaa !105
  %63 = getelementptr inbounds nuw %struct.pmix_namespace_t, ptr %62, i32 0, i32 12
  %64 = getelementptr inbounds nuw %struct.pmix_personality_t, ptr %63, i32 0, i32 1
  %65 = load ptr, ptr %64, align 8, !tbaa !106
  %66 = getelementptr inbounds nuw %struct.pmix_bfrops_module_t, ptr %65, i32 0, i32 0
  %67 = load ptr, ptr %66, align 8, !tbaa !110
  %68 = call ptr @PMIx_Data_type_string(i16 noundef zeroext 20)
  call void (i32, ptr, ...) @pmix_output(i32 noundef %59, ptr noundef @.str.12, ptr noundef @.str.5, i32 noundef 330, ptr noundef %67, ptr noundef %68)
  br label %69

69:                                               ; preds = %58, %51, %48, %45
  %70 = load ptr, ptr %7, align 8, !tbaa !87
  %71 = getelementptr inbounds nuw %struct.pmix_buffer_t, ptr %70, i32 0, i32 1
  %72 = load i8, ptr %71, align 8, !tbaa !112
  %73 = zext i8 %72 to i32
  %74 = load ptr, ptr %5, align 8, !tbaa !120
  %75 = getelementptr inbounds nuw %struct.pmix_peer_t, ptr %74, i32 0, i32 1
  %76 = load ptr, ptr %75, align 8, !tbaa !105
  %77 = getelementptr inbounds nuw %struct.pmix_namespace_t, ptr %76, i32 0, i32 12
  %78 = getelementptr inbounds nuw %struct.pmix_personality_t, ptr %77, i32 0, i32 0
  %79 = load i8, ptr %78, align 8, !tbaa !113
  %80 = zext i8 %79 to i32
  %81 = icmp eq i32 %73, %80
  br i1 %81, label %82, label %93

82:                                               ; preds = %69
  %83 = load ptr, ptr %5, align 8, !tbaa !120
  %84 = getelementptr inbounds nuw %struct.pmix_peer_t, ptr %83, i32 0, i32 1
  %85 = load ptr, ptr %84, align 8, !tbaa !105
  %86 = getelementptr inbounds nuw %struct.pmix_namespace_t, ptr %85, i32 0, i32 12
  %87 = getelementptr inbounds nuw %struct.pmix_personality_t, ptr %86, i32 0, i32 1
  %88 = load ptr, ptr %87, align 8, !tbaa !106
  %89 = getelementptr inbounds nuw %struct.pmix_bfrops_module_t, ptr %88, i32 0, i32 4
  %90 = load ptr, ptr %89, align 8, !tbaa !137
  %91 = load ptr, ptr %7, align 8, !tbaa !87
  %92 = call i32 %90(ptr noundef %91, ptr noundef %11, ptr noundef %12, i16 noundef zeroext 20)
  store i32 %92, ptr %10, align 4, !tbaa !50
  br label %94

93:                                               ; preds = %69
  store i32 -20, ptr %10, align 4, !tbaa !50
  br label %94

94:                                               ; preds = %93, %82
  br label %95

95:                                               ; preds = %94
  br label %96

96:                                               ; preds = %95
  %97 = load i32, ptr %10, align 4, !tbaa !50
  %98 = icmp ne i32 0, %97
  br i1 %98, label %99, label %110

99:                                               ; preds = %96
  br label %100

100:                                              ; preds = %99
  %101 = load i32, ptr %10, align 4, !tbaa !50
  %102 = icmp ne i32 -2, %101
  br i1 %102, label %103, label %106

103:                                              ; preds = %100
  %104 = load i32, ptr %10, align 4, !tbaa !50
  %105 = call ptr @PMIx_Error_string(i32 noundef %104)
  call void (i32, ptr, ...) @pmix_output(i32 noundef 0, ptr noundef @.str.6, ptr noundef %105, ptr noundef @.str.5, i32 noundef 332)
  br label %106

106:                                              ; preds = %103, %100
  br label %107

107:                                              ; preds = %106
  br label %108

108:                                              ; preds = %107
  %109 = load i32, ptr %10, align 4, !tbaa !50
  store i32 %109, ptr %11, align 4, !tbaa !50
  br label %110

110:                                              ; preds = %108, %96
  %111 = load ptr, ptr %9, align 8, !tbaa !87
  %112 = getelementptr inbounds nuw %struct.pmix_shift_caddy_t, ptr %111, i32 0, i32 24
  %113 = load ptr, ptr %112, align 8, !tbaa !3
  %114 = icmp ne ptr null, %113
  br i1 %114, label %115, label %123

115:                                              ; preds = %110
  %116 = load ptr, ptr %9, align 8, !tbaa !87
  %117 = getelementptr inbounds nuw %struct.pmix_shift_caddy_t, ptr %116, i32 0, i32 24
  %118 = load ptr, ptr %117, align 8, !tbaa !3
  %119 = load i32, ptr %11, align 4, !tbaa !50
  %120 = load ptr, ptr %9, align 8, !tbaa !87
  %121 = getelementptr inbounds nuw %struct.pmix_shift_caddy_t, ptr %120, i32 0, i32 25
  %122 = load ptr, ptr %121, align 8, !tbaa !158
  call void %118(i32 noundef %119, ptr noundef %122)
  br label %123

123:                                              ; preds = %115, %110
  br label %124

124:                                              ; preds = %123
  call void @llvm.lifetime.start.p0(i64 8, ptr %14) #11
  %125 = load ptr, ptr %9, align 8, !tbaa !87
  store ptr %125, ptr %14, align 8, !tbaa !74
  %126 = load ptr, ptr %14, align 8, !tbaa !74
  %127 = call i32 @pmix_obj_update(ptr noundef %126, i32 noundef -1)
  %128 = icmp eq i32 0, %127
  br i1 %128, label %129, label %143

129:                                              ; preds = %124
  %130 = load ptr, ptr %14, align 8, !tbaa !74
  call void @pmix_obj_run_destructors(ptr noundef %130)
  %131 = load ptr, ptr %14, align 8, !tbaa !74
  %132 = getelementptr inbounds nuw %struct.pmix_object_t, ptr %131, i32 0, i32 3
  %133 = getelementptr inbounds nuw %struct.pmix_tma, ptr %132, i32 0, i32 5
  %134 = load ptr, ptr %133, align 8, !tbaa !83
  %135 = icmp ne ptr null, %134
  br i1 %135, label %136, label %140

136:                                              ; preds = %129
  %137 = load ptr, ptr %14, align 8, !tbaa !74
  %138 = getelementptr inbounds nuw %struct.pmix_object_t, ptr %137, i32 0, i32 3
  %139 = load ptr, ptr %9, align 8, !tbaa !87
  call void @pmix_tma_free(ptr noundef %138, ptr noundef %139)
  br label %142

140:                                              ; preds = %129
  %141 = load ptr, ptr %9, align 8, !tbaa !87
  call void @free(ptr noundef %141) #11
  br label %142

142:                                              ; preds = %140, %136
  store ptr null, ptr %9, align 8, !tbaa !87
  br label %143

143:                                              ; preds = %142, %124
  call void @llvm.lifetime.end.p0(i64 8, ptr %14) #11
  br label %144

144:                                              ; preds = %143
  br label %145

145:                                              ; preds = %144
  store i32 0, ptr %13, align 4
  br label %146

146:                                              ; preds = %145, %43
  call void @llvm.lifetime.end.p0(i64 4, ptr %12) #11
  call void @llvm.lifetime.end.p0(i64 4, ptr %11) #11
  call void @llvm.lifetime.end.p0(i64 4, ptr %10) #11
  call void @llvm.lifetime.end.p0(i64 8, ptr %9) #11
  %147 = load i32, ptr %13, align 4
  switch i32 %147, label %149 [
    i32 0, label %148
    i32 1, label %148
  ]

148:                                              ; preds = %146, %146
  ret void

149:                                              ; preds = %146
  unreachable
}