; Function Attrs: nounwind uwtable
define internal void @blkcbfunc(ptr noundef readonly captures(none) %0, ptr readnone captures(none) %1, ptr noundef %2, ptr noundef %3) #0 {
  %5 = alloca i32, align 4
  %6 = alloca i32, align 4
  call void @llvm.lifetime.start.p0(i64 4, ptr nonnull %5) #12
  call void @llvm.lifetime.start.p0(i64 4, ptr nonnull %6) #12
  %7 = load i32, ptr getelementptr inbounds nuw (i8, ptr @pmix_globals, i64 392), align 8, !tbaa !40
  %or.cond = icmp ult i32 %7, 64
  br i1 %or.cond, label %8, label %14

8:                                                ; preds = %4
  %9 = zext nneg i32 %7 to i64
  %10 = getelementptr inbounds nuw [0 x %struct.pmix_output_desc_t], ptr @pmix_output_info, i64 0, i64 %9, i32 2
  %11 = load i32, ptr %10, align 4, !tbaa !41
  %12 = icmp sgt i32 %11, 1
  br i1 %12, label %13, label %14

13:                                               ; preds = %8
  tail call void (i32, ptr, ...) @pmix_output(i32 noundef %7, ptr noundef nonnull @.str.17) #12
  br label %14

14:                                               ; preds = %13, %8, %4
  %15 = getelementptr inbounds nuw i8, ptr %2, i64 160
  %16 = load i64, ptr %15, align 8, !tbaa !114
  %17 = icmp eq i64 %16, 0
  br i1 %17, label %85, label %18

18:                                               ; preds = %14
  %19 = getelementptr inbounds nuw i8, ptr %2, i64 136
  %20 = load ptr, ptr %19, align 8, !tbaa !115
  %21 = getelementptr inbounds nuw i8, ptr %2, i64 144
  %22 = load ptr, ptr %21, align 8, !tbaa !116
  %23 = icmp eq ptr %20, %22
  br i1 %23, label %85, label %24

24:                                               ; preds = %18
  store i32 1, ptr %6, align 4, !tbaa !46
  %25 = load i32, ptr @pmix_bfrops_base_output, align 4, !tbaa !46
  %or.cond3 = icmp ult i32 %25, 64
  br i1 %or.cond3, label %26, label %38

26:                                               ; preds = %24
  %27 = zext nneg i32 %25 to i64
  %28 = getelementptr inbounds nuw [0 x %struct.pmix_output_desc_t], ptr @pmix_output_info, i64 0, i64 %27, i32 2
  %29 = load i32, ptr %28, align 4, !tbaa !41
  %30 = icmp sgt i32 %29, 1
  br i1 %30, label %31, label %38

31:                                               ; preds = %26
  %32 = getelementptr inbounds nuw i8, ptr %0, i64 120
  %33 = load ptr, ptr %32, align 8, !tbaa !90
  %34 = getelementptr inbounds nuw i8, ptr %33, i64 488
  %35 = load ptr, ptr %34, align 8, !tbaa !91
  %36 = load ptr, ptr %35, align 8, !tbaa !95
  %37 = tail call ptr @PMIx_Data_type_string(i16 noundef zeroext 20) #12
  tail call void (i32, ptr, ...) @pmix_output(i32 noundef %25, ptr noundef nonnull @.str.12, ptr noundef nonnull @.str.5, i32 noundef 330, ptr noundef %36, ptr noundef %37) #12
  br label %38

38:                                               ; preds = %31, %26, %24
  %39 = getelementptr inbounds nuw i8, ptr %2, i64 120
  %40 = load i8, ptr %39, align 8, !tbaa !97
  %41 = getelementptr inbounds nuw i8, ptr %0, i64 120
  %42 = load ptr, ptr %41, align 8, !tbaa !90
  %43 = getelementptr inbounds nuw i8, ptr %42, i64 480
  %44 = load i8, ptr %43, align 8, !tbaa !98
  %45 = icmp eq i8 %40, %44
  br i1 %45, label %46, label %.thread

46:                                               ; preds = %38
  %47 = getelementptr inbounds nuw i8, ptr %42, i64 488
  %48 = load ptr, ptr %47, align 8, !tbaa !91
  %49 = getelementptr inbounds nuw i8, ptr %48, i64 32
  %50 = load ptr, ptr %49, align 8, !tbaa !117
  %51 = call i32 %50(ptr noundef nonnull %2, ptr noundef nonnull %5, ptr noundef nonnull %6, i16 noundef zeroext 20) #12
  switch i32 %51, label %.thread [
    i32 0, label %54
    i32 -2, label %53
  ]

.thread:                                          ; preds = %38, %46
  %.034 = phi i32 [ %51, %46 ], [ -20, %38 ]
  %52 = call ptr @PMIx_Error_string(i32 noundef %.034) #12
  call void (i32, ptr, ...) @pmix_output(i32 noundef 0, ptr noundef nonnull @.str.6, ptr noundef %52, ptr noundef nonnull @.str.5, i32 noundef 332) #12
  br label %53

53:                                               ; preds = %46, %.thread
  %.033 = phi i32 [ %51, %46 ], [ %.034, %.thread ]
  store i32 %.033, ptr %5, align 4, !tbaa !46
  br label %54

54:                                               ; preds = %46, %53
  %55 = getelementptr inbounds nuw i8, ptr %3, i64 648
  %56 = load ptr, ptr %55, align 8, !tbaa !73
  %.not29 = icmp eq ptr %56, null
  br i1 %.not29, label %61, label %57

57:                                               ; preds = %54
  %58 = load i32, ptr %5, align 4, !tbaa !46
  %59 = getelementptr inbounds nuw i8, ptr %3, i64 656
  %60 = load ptr, ptr %59, align 8, !tbaa !136
  call void %56(i32 noundef %58, ptr noundef %60) #12
  br label %61

61:                                               ; preds = %54, %57
  %62 = call i32 @pthread_mutex_lock(ptr noundef nonnull %3) #12
  %63 = icmp eq i32 %62, 35
  br i1 %63, label %64, label %pmix_obj_update.exit

64:                                               ; preds = %61
  %65 = tail call ptr @__errno_location() #14
  store i32 35, ptr %65, align 4, !tbaa !46
  call void @perror(ptr noundef nonnull @.str.10) #15
  call void @abort() #16
  unreachable

pmix_obj_update.exit:                             ; preds = %61
  %66 = getelementptr inbounds nuw i8, ptr %3, i64 48
  %67 = load i32, ptr %66, align 8, !tbaa !50
  %68 = add nsw i32 %67, -1
  store i32 %68, ptr %66, align 8, !tbaa !50
  %69 = call i32 @pthread_mutex_unlock(ptr noundef nonnull %3) #12
  %70 = icmp eq i32 %68, 0
  br i1 %70, label %71, label %85

71:                                               ; preds = %pmix_obj_update.exit
  %72 = getelementptr inbounds nuw i8, ptr %3, i64 40
  %73 = load ptr, ptr %72, align 8, !tbaa !49
  %74 = getelementptr inbounds nuw i8, ptr %73, i64 48
  %75 = load ptr, ptr %74, align 8, !tbaa !54
  %76 = load ptr, ptr %75, align 8, !tbaa !52
  %.not6.i = icmp eq ptr %76, null
  br i1 %.not6.i, label %pmix_obj_run_destructors.exit, label %.lr.ph.i

.lr.ph.i:                                         ; preds = %71, %.lr.ph.i
  %77 = phi ptr [ %79, %.lr.ph.i ], [ %76, %71 ]
  %.07.i = phi ptr [ %78, %.lr.ph.i ], [ %75, %71 ]
  call void %77(ptr noundef nonnull %3) #12
  %78 = getelementptr inbounds nuw i8, ptr %.07.i, i64 8
  %79 = load ptr, ptr %78, align 8, !tbaa !52
  %.not.i = icmp eq ptr %79, null
  br i1 %.not.i, label %pmix_obj_run_destructors.exit, label %.lr.ph.i, !llvm.loop !55

pmix_obj_run_destructors.exit:                    ; preds = %.lr.ph.i, %71
  %80 = getelementptr inbounds nuw i8, ptr %3, i64 96
  %81 = load ptr, ptr %80, align 8, !tbaa !100
  %.not30 = icmp eq ptr %81, null
  br i1 %.not30, label %84, label %82

82:                                               ; preds = %pmix_obj_run_destructors.exit
  %83 = getelementptr inbounds nuw i8, ptr %3, i64 56
  call void %81(ptr noundef nonnull %83, ptr noundef nonnull %3) #12
  br label %85

84:                                               ; preds = %pmix_obj_run_destructors.exit
  call void @free(ptr noundef nonnull %3) #12
  br label %85

85:                                               ; preds = %pmix_obj_update.exit, %84, %82, %14, %18
  call void @llvm.lifetime.end.p0(i64 4, ptr nonnull %6) #12
  call void @llvm.lifetime.end.p0(i64 4, ptr nonnull %5) #12
  ret void
}